; Function Attrs: nounwind uwtable
define i32 @Abc_NodeIsConst1(ptr noundef readonly captures(none) %0) local_unnamed_addr #0 {
  %2 = load ptr, ptr %0, align 8, !tbaa !24
  %3 = getelementptr i8, ptr %0, i64 20
  %.val.i = load i32, ptr %3, align 4
  %4 = and i32 %.val.i, 15
  %.not.i = icmp eq i32 %4, 7
  br i1 %.not.i, label %Abc_NodeIsConst.exit, label %Abc_NodeIsConst.exit.thread

Abc_NodeIsConst.exit:                             ; preds = %1
  %5 = getelementptr i8, ptr %0, i64 28
  %.val2.i = load i32, ptr %5, align 4, !tbaa !59
  %.not = icmp eq i32 %.val2.i, 0
  br i1 %.not, label %6, label %Abc_NodeIsConst.exit.thread

6:                                                ; preds = %Abc_NodeIsConst.exit
  %7 = getelementptr i8, ptr %2, i64 4
  %.val16 = load i32, ptr %7, align 4, !tbaa !51
  switch i32 %.val16, label %Abc_NodeIsConst.exit.thread [
    i32 1, label %8
    i32 2, label %12
    i32 3, label %19
    i32 4, label %26
  ]

8:                                                ; preds = %6
  %9 = getelementptr inbounds nuw i8, ptr %0, i64 56
  %10 = load ptr, ptr %9, align 8, !tbaa !43
  %11 = tail call i32 @Abc_SopIsConst1(ptr noundef %10) #10
  br label %Abc_NodeIsConst.exit.thread

12:                                               ; preds = %6
  %13 = getelementptr inbounds nuw i8, ptr %0, i64 56
  %14 = load ptr, ptr %13, align 8, !tbaa !43
  %15 = ptrtoint ptr %14 to i64
  %16 = trunc i64 %15 to i32
  %17 = and i32 %16, 1
  %18 = xor i32 %17, 1
  br label %Abc_NodeIsConst.exit.thread

19:                                               ; preds = %6
  %20 = getelementptr inbounds nuw i8, ptr %0, i64 56
  %21 = load ptr, ptr %20, align 8, !tbaa !43
  %22 = ptrtoint ptr %21 to i64
  %23 = trunc i64 %22 to i32
  %24 = and i32 %23, 1
  %25 = xor i32 %24, 1
  br label %Abc_NodeIsConst.exit.thread

26:                                               ; preds = %6
  %27 = getelementptr inbounds nuw i8, ptr %0, i64 56
  %28 = load ptr, ptr %27, align 8, !tbaa !43
  %29 = tail call ptr (...) @Abc_FrameReadLibGen() #10
  %30 = tail call ptr @Mio_LibraryReadConst1(ptr noundef %29) #10
  %31 = icmp eq ptr %28, %30
  %32 = zext i1 %31 to i32
  br label %Abc_NodeIsConst.exit.thread

Abc_NodeIsConst.exit.thread:                      ; preds = %6, %1, %Abc_NodeIsConst.exit, %26, %19, %12, %8
  %.0 = phi i32 [ %11, %8 ], [ %18, %12 ], [ %25, %19 ], [ %32, %26 ], [ 0, %Abc_NodeIsConst.exit ], [ 0, %1 ], [ 0, %6 ]
  ret i32 %.0
}